target datalayout = "e-m:e-p270:32:32-p271:32:32-p272:64:64-i64:64-i128:128-f80:128-n8:16:32:64-S128"
target triple = "x86_64-unknown-linux-gnu"

%struct.grpc_channel_filter = type { ptr, ptr, ptr, ptr, i64, ptr, ptr, ptr, i64, ptr, ptr, ptr, ptr, ptr }
%struct.grpc_channel_element = type { ptr, ptr }
%struct.grpc_channel_stack = type { %struct.grpc_stream_refcount, i64, i64, %"class.grpc_core::ManualConstructor.3", %"class.grpc_core::ManualConstructor.4" }
%struct.grpc_stream_refcount = type { %"class.grpc_core::RefCount", %struct.grpc_closure }
%"class.grpc_core::RefCount" = type { %"struct.std::atomic.0" }
%"struct.std::atomic.0" = type { %"struct.std::__atomic_base.1" }
%"struct.std::__atomic_base.1" = type { i64 }
%struct.grpc_closure = type { %union.anon, ptr, ptr, %union.anon.2 }
%union.anon = type { ptr }
%union.anon.2 = type { i64 }
%"class.grpc_core::ManualConstructor.3" = type { [32 x i8] }
%"class.grpc_core::ManualConstructor.4" = type { [16 x i8] }
%struct.grpc_call_element = type { ptr, ptr, ptr }
%"class.absl::lts_20230802::Status" = type { i64 }
%struct.grpc_call_element_args = type { ptr, ptr, ptr, ptr, double, %"class.grpc_core::Timestamp", ptr, ptr }
%"class.grpc_core::Timestamp" = type { i64 }
%struct.grpc_call_stack = type { %struct.grpc_stream_refcount, i64 }
%"struct.absl::lts_20230802::status_internal::StatusRep" = type { %"struct.std::atomic.13", i32, %"class.std::__cxx11::basic_string", %"class.std::unique_ptr.16" }
%"struct.std::atomic.13" = type { %"struct.std::__atomic_base.14" }
%"struct.std::__atomic_base.14" = type { i32 }
%"class.std::__cxx11::basic_string" = type { %"struct.std::__cxx11::basic_string<char>::_Alloc_hider", i64, %union.anon.15 }
%"struct.std::__cxx11::basic_string<char>::_Alloc_hider" = type { ptr }
%union.anon.15 = type { i64, [8 x i8] }
%"class.std::unique_ptr.16" = type { %"struct.std::__uniq_ptr_data.17" }
%"struct.std::__uniq_ptr_data.17" = type { %"class.std::__uniq_ptr_impl.18" }
%"class.std::__uniq_ptr_impl.18" = type { %"class.std::tuple.19" }
%"class.std::tuple.19" = type { %"struct.std::_Tuple_impl.20" }
%"struct.std::_Tuple_impl.20" = type { %"struct.std::_Head_base.23" }
%"struct.std::_Head_base.23" = type { ptr }

; Function Attrs: mustprogress nounwind uwtable
define linkonce_odr noundef ptr @_ZN4absl12lts_202308026Status12RepToPointerEm(i64 noundef %rep) #4 comdat align 2 {
entry:
  %rep.addr = alloca i64, align 8
  store i64 %rep, ptr %rep.addr, align 8
  %0 = load i64, ptr %rep.addr, align 8
  %sub = sub i64 %0, 1
  %1 = inttoptr i64 %sub to ptr
  ret ptr %1
}

; Function Attrs: mustprogress nounwind uwtable
define linkonce_odr noundef zeroext i1 @_ZN4absl12lts_202308026Status9IsInlinedEm(i64 noundef %rep) #4 comdat align 2 {
entry:
  %rep.addr = alloca i64, align 8
  store i64 %rep, ptr %rep.addr, align 8
  %0 = load i64, ptr %rep.addr, align 8
  %and = and i64 %0, 1
  %cmp = icmp eq i64 %and, 0
  ret i1 %cmp
}

; Function Attrs: mustprogress uwtable
define linkonce_odr void @_ZN4absl12lts_202308026Status5UnrefEm(i64 noundef %rep) #5 comdat align 2 {
entry:
  %rep.addr = alloca i64, align 8
  store i64 %rep, ptr %rep.addr, align 8
  %0 = load i64, ptr %rep.addr, align 8
  %call = call noundef zeroext i1 @_ZN4absl12lts_202308026Status9IsInlinedEm(i64 noundef %0)
  br i1 %call, label %if.end, label %if.then

if.then:                                          ; preds = %entry
  %1 = load i64, ptr %rep.addr, align 8
  call void @_ZN4absl12lts_202308026Status15UnrefNonInlinedEm(i64 noundef %1)
  br label %if.end

if.end:                                           ; preds = %if.then, %entry
  ret void
}

; Function Attrs: mustprogress uwtable
define linkonce_odr void @_ZN4absl12lts_202308026Status3RefEm(i64 noundef %rep) #5 comdat align 2 {
entry:
  %this.addr.i = alloca ptr, align 8
  %__i.addr.i = alloca i32, align 4
  %__m.addr.i = alloca i32, align 4
  %.atomictmp.i = alloca i32, align 4
  %atomic-temp.i = alloca i32, align 4
  %rep.addr = alloca i64, align 8
  store i64 %rep, ptr %rep.addr, align 8
  %0 = load i64, ptr %rep.addr, align 8
  %call = call noundef zeroext i1 @_ZN4absl12lts_202308026Status9IsInlinedEm(i64 noundef %0)
  br i1 %call, label %if.end, label %if.then

if.then:                                          ; preds = %entry
  %1 = load i64, ptr %rep.addr, align 8
  %call1 = call noundef ptr @_ZN4absl12lts_202308026Status12RepToPointerEm(i64 noundef %1)
  %ref = getelementptr inbounds %"struct.absl::lts_20230802::status_internal::StatusRep", ptr %call1, i32 0, i32 0
  store ptr %ref, ptr %this.addr.i, align 8
  store i32 1, ptr %__i.addr.i, align 4
  store i32 0, ptr %__m.addr.i, align 4
  %this1.i = load ptr, ptr %this.addr.i, align 8
  %2 = load i32, ptr %__m.addr.i, align 4
  %3 = load i32, ptr %__i.addr.i, align 4
  store i32 %3, ptr %.atomictmp.i, align 4
  switch i32 %2, label %monotonic.i [
    i32 1, label %acquire.i
    i32 2, label %acquire.i
    i32 3, label %release.i
    i32 4, label %acqrel.i
    i32 5, label %seqcst.i
  ]

monotonic.i:                                      ; preds = %if.then
  %4 = load i32, ptr %.atomictmp.i, align 4
  %5 = atomicrmw add ptr %this1.i, i32 %4 monotonic, align 4
  store i32 %5, ptr %atomic-temp.i, align 4
  br label %_ZNSt13__atomic_baseIiE9fetch_addEiSt12memory_order.exit

acquire.i:                                        ; preds = %if.then, %if.then
  %6 = load i32, ptr %.atomictmp.i, align 4
  %7 = atomicrmw add ptr %this1.i, i32 %6 acquire, align 4
  store i32 %7, ptr %atomic-temp.i, align 4
  br label %_ZNSt13__atomic_baseIiE9fetch_addEiSt12memory_order.exit

release.i:                                        ; preds = %if.then
  %8 = load i32, ptr %.atomictmp.i, align 4
  %9 = atomicrmw add ptr %this1.i, i32 %8 release, align 4
  store i32 %9, ptr %atomic-temp.i, align 4
  br label %_ZNSt13__atomic_baseIiE9fetch_addEiSt12memory_order.exit

acqrel.i:                                         ; preds = %if.then
  %10 = load i32, ptr %.atomictmp.i, align 4
  %11 = atomicrmw add ptr %this1.i, i32 %10 acq_rel, align 4
  store i32 %11, ptr %atomic-temp.i, align 4
  br label %_ZNSt13__atomic_baseIiE9fetch_addEiSt12memory_order.exit

seqcst.i:                                         ; preds = %if.then
  %12 = load i32, ptr %.atomictmp.i, align 4
  %13 = atomicrmw add ptr %this1.i, i32 %12 seq_cst, align 4
  store i32 %13, ptr %atomic-temp.i, align 4
  br label %_ZNSt13__atomic_baseIiE9fetch_addEiSt12memory_order.exit

_ZNSt13__atomic_baseIiE9fetch_addEiSt12memory_order.exit: ; preds = %seqcst.i, %acqrel.i, %release.i, %acquire.i, %monotonic.i
  br label %if.end

if.end:                                           ; preds = %_ZNSt13__atomic_baseIiE9fetch_addEiSt12memory_order.exit, %entry
  ret void
}

; Function Attrs: mustprogress nounwind uwtable
define linkonce_odr noundef i64 @_ZN4absl12lts_202308026Status16CodeToInlinedRepENS0_10StatusCodeE(i32 noundef %code) #4 comdat align 2 {
entry:
  %code.addr = alloca i32, align 4
  store i32 %code, ptr %code.addr, align 4
  %0 = load i32, ptr %code.addr, align 4
  %conv = sext i32 %0 to i64
  %shl = shl i64 %conv, 2
  ret i64 %shl
}

; Function Attrs: mustprogress uwtable
define linkonce_odr noundef nonnull align 8 dereferenceable(8) ptr @_ZN4absl12lts_202308026StatusaSERKS1_(ptr noundef nonnull align 8 dereferenceable(8) %this, ptr noundef nonnull align 8 dereferenceable(8) %x) #5 comdat align 2 {
entry:
  %this.addr = alloca ptr, align 8
  %x.addr = alloca ptr, align 8
  %old_rep = alloca i64, align 8
  store ptr %this, ptr %this.addr, align 8
  store ptr %x, ptr %x.addr, align 8
  %this1 = load ptr, ptr %this.addr, align 8
  %rep_ = getelementptr inbounds %"class.absl::lts_20230802::Status", ptr %this1, i32 0, i32 0
  %0 = load i64, ptr %rep_, align 8
  store i64 %0, ptr %old_rep, align 8
  %1 = load ptr, ptr %x.addr, align 8
  %rep_2 = getelementptr inbounds %"class.absl::lts_20230802::Status", ptr %1, i32 0, i32 0
  %2 = load i64, ptr %rep_2, align 8
  %3 = load i64, ptr %old_rep, align 8
  %cmp = icmp ne i64 %2, %3
  br i1 %cmp, label %if.then, label %if.end

if.then:                                          ; preds = %entry
  %4 = load ptr, ptr %x.addr, align 8
  %rep_3 = getelementptr inbounds %"class.absl::lts_20230802::Status", ptr %4, i32 0, i32 0
  %5 = load i64, ptr %rep_3, align 8
  call void @_ZN4absl12lts_202308026Status3RefEm(i64 noundef %5)
  %6 = load ptr, ptr %x.addr, align 8
  %rep_4 = getelementptr inbounds %"class.absl::lts_20230802::Status", ptr %6, i32 0, i32 0
  %7 = load i64, ptr %rep_4, align 8
  %rep_5 = getelementptr inbounds %"class.absl::lts_20230802::Status", ptr %this1, i32 0, i32 0
  store i64 %7, ptr %rep_5, align 8
  %8 = load i64, ptr %old_rep, align 8
  call void @_ZN4absl12lts_202308026Status5UnrefEm(i64 noundef %8)
  br label %if.end

if.end:                                           ; preds = %if.then, %entry
  ret ptr %this1
}

; Function Attrs: mustprogress nounwind uwtable
define linkonce_odr noundef zeroext i1 @_ZNK4absl12lts_202308026Status2okEv(ptr noundef nonnull align 8 dereferenceable(8) %this) #4 comdat align 2 {
entry:
  %this.addr = alloca ptr, align 8
  store ptr %this, ptr %this.addr, align 8
  %this1 = load ptr, ptr %this.addr, align 8
  %rep_ = getelementptr inbounds %"class.absl::lts_20230802::Status", ptr %this1, i32 0, i32 0
  %0 = load i64, ptr %rep_, align 8
  %call = call noundef i64 @_ZN4absl12lts_202308026Status16CodeToInlinedRepENS0_10StatusCodeE(i32 noundef 0)
  %cmp = icmp eq i64 %0, %call
  ret i1 %cmp
}

; Function Attrs: mustprogress uwtable
define linkonce_odr void @_ZN4absl12lts_202308026StatusC2Ev(ptr noundef nonnull align 8 dereferenceable(8) %this) unnamed_addr #5 comdat align 2 {
entry:
  %this.addr = alloca ptr, align 8
  store ptr %this, ptr %this.addr, align 8
  %this1 = load ptr, ptr %this.addr, align 8
  %rep_ = getelementptr inbounds %"class.absl::lts_20230802::Status", ptr %this1, i32 0, i32 0
  %call = call noundef i64 @_ZN4absl12lts_202308026Status16CodeToInlinedRepENS0_10StatusCodeE(i32 noundef 0)
  store i64 %call, ptr %rep_, align 8
  ret void
}

; Function Attrs: mustprogress uwtable
define void @_Z20grpc_call_stack_initP18grpc_channel_stackiPFvPvN4absl12lts_202308026StatusEES1_PK22grpc_call_element_args(ptr noalias sret(%"class.absl::lts_20230802::Status") align 8 %agg.result, ptr noundef %channel_stack, i32 noundef %initial_refs, ptr noundef %destroy, ptr noundef %destroy_arg, ptr noundef %elem_args) #5 personality ptr @__gxx_personality_v0 {
entry:
  %result.ptr = alloca ptr, align 8
  %channel_stack.addr = alloca ptr, align 8
  %initial_refs.addr = alloca i32, align 4
  %destroy.addr = alloca ptr, align 8
  %destroy_arg.addr = alloca ptr, align 8
  %elem_args.addr = alloca ptr, align 8
  %channel_elems = alloca ptr, align 8
  %count = alloca i64, align 8
  %call_elems = alloca ptr, align 8
  %user_data = alloca ptr, align 8
  %nrvo = alloca i1, align 1
  %i = alloca i64, align 8
  %i19 = alloca i64, align 8
  %error = alloca %"class.absl::lts_20230802::Status", align 8
  %exn.slot = alloca ptr, align 8
  %ehselector.slot = alloca i32, align 4
  store ptr %agg.result, ptr %result.ptr, align 8
  store ptr %channel_stack, ptr %channel_stack.addr, align 8
  store i32 %initial_refs, ptr %initial_refs.addr, align 4
  store ptr %destroy, ptr %destroy.addr, align 8
  store ptr %destroy_arg, ptr %destroy_arg.addr, align 8
  store ptr %elem_args, ptr %elem_args.addr, align 8
  %0 = load ptr, ptr %channel_stack.addr, align 8
  %add.ptr = getelementptr inbounds i8, ptr %0, i64 112
  store ptr %add.ptr, ptr %channel_elems, align 8
  %1 = load ptr, ptr %channel_stack.addr, align 8
  %count1 = getelementptr inbounds %struct.grpc_channel_stack, ptr %1, i32 0, i32 1
  %2 = load i64, ptr %count1, align 8
  store i64 %2, ptr %count, align 8
  %3 = load i64, ptr %count, align 8
  %4 = load ptr, ptr %elem_args.addr, align 8
  %call_stack = getelementptr inbounds %struct.grpc_call_element_args, ptr %4, i32 0, i32 0
  %5 = load ptr, ptr %call_stack, align 8
  %count2 = getelementptr inbounds %struct.grpc_call_stack, ptr %5, i32 0, i32 1
  store i64 %3, ptr %count2, align 8
  br label %do.body

do.body:                                          ; preds = %entry
  %6 = load ptr, ptr %elem_args.addr, align 8
  %call_stack3 = getelementptr inbounds %struct.grpc_call_element_args, ptr %6, i32 0, i32 0
  %7 = load ptr, ptr %call_stack3, align 8
  %refcount = getelementptr inbounds %struct.grpc_call_stack, ptr %7, i32 0, i32 0
  %8 = load i32, ptr %initial_refs.addr, align 4
  %9 = load ptr, ptr %destroy.addr, align 8
  %10 = load ptr, ptr %destroy_arg.addr, align 8
  call void @_Z20grpc_stream_ref_initP20grpc_stream_refcountiPFvPvN4absl12lts_202308026StatusEES1_(ptr noundef %refcount, i32 noundef %8, ptr noundef %9, ptr noundef %10)
  br label %do.end

do.end:                                           ; preds = %do.body
  %11 = load ptr, ptr %elem_args.addr, align 8
  %call_stack4 = getelementptr inbounds %struct.grpc_call_element_args, ptr %11, i32 0, i32 0
  %12 = load ptr, ptr %call_stack4, align 8
  %add.ptr5 = getelementptr inbounds i8, ptr %12, i64 48
  store ptr %add.ptr5, ptr %call_elems, align 8
  %13 = load ptr, ptr %call_elems, align 8
  %14 = load i64, ptr %count, align 8
  %mul = mul i64 %14, 24
  %add = add i64 %mul, 16
  %sub = sub i64 %add, 1
  %and = and i64 %sub, 4294967280
  %add.ptr6 = getelementptr inbounds i8, ptr %13, i64 %and
  store ptr %add.ptr6, ptr %user_data, align 8
  store i1 false, ptr %nrvo, align 1
  call void @_ZN4absl12lts_202308026StatusC2Ev(ptr noundef nonnull align 8 dereferenceable(8) %agg.result)
  store i64 0, ptr %i, align 8
  br label %for.cond

for.cond:                                         ; preds = %for.inc, %do.end
  %15 = load i64, ptr %i, align 8
  %16 = load i64, ptr %count, align 8
  %cmp = icmp ult i64 %15, %16
  br i1 %cmp, label %for.body, label %for.end

for.body:                                         ; preds = %for.cond
  %17 = load ptr, ptr %channel_elems, align 8
  %18 = load i64, ptr %i, align 8
  %arrayidx = getelementptr inbounds %struct.grpc_channel_element, ptr %17, i64 %18
  %filter = getelementptr inbounds %struct.grpc_channel_element, ptr %arrayidx, i32 0, i32 0
  %19 = load ptr, ptr %filter, align 8
  %20 = load ptr, ptr %call_elems, align 8
  %21 = load i64, ptr %i, align 8
  %arrayidx7 = getelementptr inbounds %struct.grpc_call_element, ptr %20, i64 %21
  %filter8 = getelementptr inbounds %struct.grpc_call_element, ptr %arrayidx7, i32 0, i32 0
  store ptr %19, ptr %filter8, align 8
  %22 = load ptr, ptr %channel_elems, align 8
  %23 = load i64, ptr %i, align 8
  %arrayidx9 = getelementptr inbounds %struct.grpc_channel_element, ptr %22, i64 %23
  %channel_data = getelementptr inbounds %struct.grpc_channel_element, ptr %arrayidx9, i32 0, i32 1
  %24 = load ptr, ptr %channel_data, align 8
  %25 = load ptr, ptr %call_elems, align 8
  %26 = load i64, ptr %i, align 8
  %arrayidx10 = getelementptr inbounds %struct.grpc_call_element, ptr %25, i64 %26
  %channel_data11 = getelementptr inbounds %struct.grpc_call_element, ptr %arrayidx10, i32 0, i32 1
  store ptr %24, ptr %channel_data11, align 8
  %27 = load ptr, ptr %user_data, align 8
  %28 = load ptr, ptr %call_elems, align 8
  %29 = load i64, ptr %i, align 8
  %arrayidx12 = getelementptr inbounds %struct.grpc_call_element, ptr %28, i64 %29
  %call_data = getelementptr inbounds %struct.grpc_call_element, ptr %arrayidx12, i32 0, i32 2
  store ptr %27, ptr %call_data, align 8
  %30 = load ptr, ptr %call_elems, align 8
  %31 = load i64, ptr %i, align 8
  %arrayidx13 = getelementptr inbounds %struct.grpc_call_element, ptr %30, i64 %31
  %filter14 = getelementptr inbounds %struct.grpc_call_element, ptr %arrayidx13, i32 0, i32 0
  %32 = load ptr, ptr %filter14, align 8
  %sizeof_call_data = getelementptr inbounds %struct.grpc_channel_filter, ptr %32, i32 0, i32 4
  %33 = load i64, ptr %sizeof_call_data, align 8
  %add15 = add i64 %33, 16
  %sub16 = sub i64 %add15, 1
  %and17 = and i64 %sub16, 4294967280
  %34 = load ptr, ptr %user_data, align 8
  %add.ptr18 = getelementptr inbounds i8, ptr %34, i64 %and17
  store ptr %add.ptr18, ptr %user_data, align 8
  br label %for.inc

for.inc:                                          ; preds = %for.body
  %35 = load i64, ptr %i, align 8
  %inc = add i64 %35, 1
  store i64 %inc, ptr %i, align 8
  br label %for.cond, !llvm.loop !10

for.end:                                          ; preds = %for.cond
  store i64 0, ptr %i19, align 8
  br label %for.cond20

for.cond20:                                       ; preds = %for.inc34, %for.end
  %36 = load i64, ptr %i19, align 8
  %37 = load i64, ptr %count, align 8
  %cmp21 = icmp ult i64 %36, %37
  br i1 %cmp21, label %for.body22, label %for.end36

for.body22:                                       ; preds = %for.cond20
  %38 = load ptr, ptr %call_elems, align 8
  %39 = load i64, ptr %i19, align 8
  %arrayidx23 = getelementptr inbounds %struct.grpc_call_element, ptr %38, i64 %39
  %filter24 = getelementptr inbounds %struct.grpc_call_element, ptr %arrayidx23, i32 0, i32 0
  %40 = load ptr, ptr %filter24, align 8
  %init_call_elem = getelementptr inbounds %struct.grpc_channel_filter, ptr %40, i32 0, i32 5
  %41 = load ptr, ptr %init_call_elem, align 8
  %42 = load ptr, ptr %call_elems, align 8
  %43 = load i64, ptr %i19, align 8
  %arrayidx25 = getelementptr inbounds %struct.grpc_call_element, ptr %42, i64 %43
  %44 = load ptr, ptr %elem_args.addr, align 8
  invoke void %41(ptr sret(%"class.absl::lts_20230802::Status") align 8 %error, ptr noundef %arrayidx25, ptr noundef %44)
          to label %invoke.cont unwind label %lpad

invoke.cont:                                      ; preds = %for.body22
  %call = invoke noundef zeroext i1 @_ZNK4absl12lts_202308026Status2okEv(ptr noundef nonnull align 8 dereferenceable(8) %error)
          to label %invoke.cont27 unwind label %lpad26

invoke.cont27:                                    ; preds = %invoke.cont
  br i1 %call, label %if.end33, label %if.then

if.then:                                          ; preds = %invoke.cont27
  %call29 = invoke noundef zeroext i1 @_ZNK4absl12lts_202308026Status2okEv(ptr noundef nonnull align 8 dereferenceable(8) %agg.result)
          to label %invoke.cont28 unwind label %lpad26

invoke.cont28:                                    ; preds = %if.then
  br i1 %call29, label %if.then30, label %if.end

if.then30:                                        ; preds = %invoke.cont28
  %call32 = invoke noundef nonnull align 8 dereferenceable(8) ptr @_ZN4absl12lts_202308026StatusaSERKS1_(ptr noundef nonnull align 8 dereferenceable(8) %agg.result, ptr noundef nonnull align 8 dereferenceable(8) %error)
          to label %invoke.cont31 unwind label %lpad26

invoke.cont31:                                    ; preds = %if.then30
  br label %if.end

lpad:                                             ; preds = %for.body22
  %45 = landingpad { ptr, i32 }
          cleanup
  %46 = extractvalue { ptr, i32 } %45, 0
  store ptr %46, ptr %exn.slot, align 8
  %47 = extractvalue { ptr, i32 } %45, 1
  store i32 %47, ptr %ehselector.slot, align 4
  br label %ehcleanup

lpad26:                                           ; preds = %if.then30, %if.then, %invoke.cont
  %48 = landingpad { ptr, i32 }
          cleanup
  %49 = extractvalue { ptr, i32 } %48, 0
  store ptr %49, ptr %exn.slot, align 8
  %50 = extractvalue { ptr, i32 } %48, 1
  store i32 %50, ptr %ehselector.slot, align 4
  call void @_ZN4absl12lts_202308026StatusD2Ev(ptr noundef nonnull align 8 dereferenceable(8) %error) #3
  br label %ehcleanup

if.end:                                           ; preds = %invoke.cont31, %invoke.cont28
  br label %if.end33

if.end33:                                         ; preds = %if.end, %invoke.cont27
  call void @_ZN4absl12lts_202308026StatusD2Ev(ptr noundef nonnull align 8 dereferenceable(8) %error) #3
  br label %for.inc34

for.inc34:                                        ; preds = %if.end33
  %51 = load i64, ptr %i19, align 8
  %inc35 = add i64 %51, 1
  store i64 %inc35, ptr %i19, align 8
  br label %for.cond20, !llvm.loop !11

for.end36:                                        ; preds = %for.cond20
  store i1 true, ptr %nrvo, align 1
  %nrvo.val = load i1, ptr %nrvo, align 1
  br i1 %nrvo.val, label %nrvo.skipdtor, label %nrvo.unused

nrvo.unused:                                      ; preds = %for.end36
  call void @_ZN4absl12lts_202308026StatusD2Ev(ptr noundef nonnull align 8 dereferenceable(8) %agg.result) #3
  br label %nrvo.skipdtor

nrvo.skipdtor:                                    ; preds = %nrvo.unused, %for.end36
  ret void

ehcleanup:                                        ; preds = %lpad26, %lpad
  call void @_ZN4absl12lts_202308026StatusD2Ev(ptr noundef nonnull align 8 dereferenceable(8) %agg.result) #3
  br label %eh.resume

eh.resume:                                        ; preds = %ehcleanup
  %exn = load ptr, ptr %exn.slot, align 8
  %sel = load i32, ptr %ehselector.slot, align 4
  %lpad.val = insertvalue { ptr, i32 } poison, ptr %exn, 0
  %lpad.val37 = insertvalue { ptr, i32 } %lpad.val, i32 %sel, 1
  resume { ptr, i32 } %lpad.val37
}