; Function Attrs: mustprogress uwtable
define void @_Z20grpc_call_stack_initP18grpc_channel_stackiPFvPvN4absl12lts_202308026StatusEES1_PK22grpc_call_element_args(ptr noalias sret(%"class.absl::lts_20230802::Status") align 8 %agg.result, ptr nocapture noundef readonly %channel_stack, i32 noundef %initial_refs, ptr noundef %destroy, ptr noundef %destroy_arg, ptr noundef %elem_args) local_unnamed_addr #6 personality ptr @__gxx_personality_v0 {
entry:
  %error = alloca %"class.absl::lts_20230802::Status", align 8
  %add.ptr = getelementptr inbounds i8, ptr %channel_stack, i64 112
  %count1 = getelementptr inbounds i8, ptr %channel_stack, i64 40
  %0 = load i64, ptr %count1, align 8
  %1 = load ptr, ptr %elem_args, align 8
  %count2 = getelementptr inbounds i8, ptr %1, i64 40
  store i64 %0, ptr %count2, align 8
  %2 = load ptr, ptr %elem_args, align 8
  tail call void @_Z20grpc_stream_ref_initP20grpc_stream_refcountiPFvPvN4absl12lts_202308026StatusEES1_(ptr noundef %2, i32 noundef %initial_refs, ptr noundef %destroy, ptr noundef %destroy_arg)
  %3 = load ptr, ptr %elem_args, align 8
  %add.ptr5 = getelementptr inbounds i8, ptr %3, i64 48
  store i64 0, ptr %agg.result, align 8
  %cmp31.not = icmp eq i64 %0, 0
  br i1 %cmp31.not, label %nrvo.skipdtor, label %for.body.preheader

for.body.preheader:                               ; preds = %entry
  %mul = mul i64 %0, 24
  %sub = add i64 %mul, 15
  %and = and i64 %sub, 4294967280
  %add.ptr6 = getelementptr inbounds i8, ptr %add.ptr5, i64 %and
  br label %for.body

for.body:                                         ; preds = %for.body.preheader, %for.body
  %i.033 = phi i64 [ %inc, %for.body ], [ 0, %for.body.preheader ]
  %user_data.032 = phi ptr [ %add.ptr18, %for.body ], [ %add.ptr6, %for.body.preheader ]
  %arrayidx = getelementptr inbounds %struct.grpc_channel_element, ptr %add.ptr, i64 %i.033
  %4 = load ptr, ptr %arrayidx, align 8
  %arrayidx7 = getelementptr inbounds %struct.grpc_call_element, ptr %add.ptr5, i64 %i.033
  store ptr %4, ptr %arrayidx7, align 8
  %channel_data = getelementptr inbounds i8, ptr %arrayidx, i64 8
  %5 = load ptr, ptr %channel_data, align 8
  %channel_data11 = getelementptr inbounds i8, ptr %arrayidx7, i64 8
  store ptr %5, ptr %channel_data11, align 8
  %call_data = getelementptr inbounds i8, ptr %arrayidx7, i64 16
  store ptr %user_data.032, ptr %call_data, align 8
  %sizeof_call_data = getelementptr inbounds i8, ptr %4, i64 32
  %6 = load i64, ptr %sizeof_call_data, align 8
  %sub16 = add i64 %6, 15
  %and17 = and i64 %sub16, 4294967280
  %add.ptr18 = getelementptr inbounds i8, ptr %user_data.032, i64 %and17
  %inc = add nuw i64 %i.033, 1
  %exitcond.not = icmp eq i64 %inc, %0
  br i1 %exitcond.not, label %for.body22, label %for.body, !llvm.loop !16

for.body22:                                       ; preds = %for.body, %_ZN4absl12lts_202308026StatusD2Ev.exit
  %7 = phi i64 [ %15, %_ZN4absl12lts_202308026StatusD2Ev.exit ], [ 0, %for.body ]
  %i19.035 = phi i64 [ %inc35, %_ZN4absl12lts_202308026StatusD2Ev.exit ], [ 0, %for.body ]
  %arrayidx23 = getelementptr inbounds %struct.grpc_call_element, ptr %add.ptr5, i64 %i19.035
  %8 = load ptr, ptr %arrayidx23, align 8
  %init_call_elem = getelementptr inbounds i8, ptr %8, i64 40
  %9 = load ptr, ptr %init_call_elem, align 8
  invoke void %9(ptr nonnull sret(%"class.absl::lts_20230802::Status") align 8 %error, ptr noundef nonnull %arrayidx23, ptr noundef nonnull %elem_args)
          to label %invoke.cont unwind label %ehcleanup

invoke.cont:                                      ; preds = %for.body22
  %10 = load i64, ptr %error, align 8
  %cmp.i = icmp ne i64 %10, 0
  %cmp.i27 = icmp eq i64 %7, 0
  %or.cond = select i1 %cmp.i, i1 %cmp.i27, i1 false
  br i1 %or.cond, label %if.then.i, label %if.end33

if.then.i:                                        ; preds = %invoke.cont
  %and.i.i.i = and i64 %10, 1
  %cmp.i.i.i = icmp eq i64 %and.i.i.i, 0
  br i1 %cmp.i.i.i, label %_ZN4absl12lts_202308026Status3RefEm.exit.i, label %if.then.i.i

if.then.i.i:                                      ; preds = %if.then.i
  %sub.i.i.i = add nsw i64 %10, -1
  %11 = inttoptr i64 %sub.i.i.i to ptr
  %12 = atomicrmw add ptr %11, i32 1 monotonic, align 4
  %.pre.i = load i64, ptr %error, align 8
  br label %_ZN4absl12lts_202308026Status3RefEm.exit.i

_ZN4absl12lts_202308026Status3RefEm.exit.i:       ; preds = %if.then.i.i, %if.then.i
  %13 = phi i64 [ %10, %if.then.i ], [ %.pre.i, %if.then.i.i ]
  store i64 %13, ptr %agg.result, align 8
  br label %if.end33

if.end33:                                         ; preds = %_ZN4absl12lts_202308026Status3RefEm.exit.i, %invoke.cont
  %14 = phi i64 [ %13, %_ZN4absl12lts_202308026Status3RefEm.exit.i ], [ %10, %invoke.cont ]
  %15 = phi i64 [ %13, %_ZN4absl12lts_202308026Status3RefEm.exit.i ], [ %7, %invoke.cont ]
  %and.i.i.i28 = and i64 %14, 1
  %cmp.i.i.i29 = icmp eq i64 %and.i.i.i28, 0
  br i1 %cmp.i.i.i29, label %_ZN4absl12lts_202308026StatusD2Ev.exit, label %if.then.i.i30

if.then.i.i30:                                    ; preds = %if.end33
  invoke void @_ZN4absl12lts_202308026Status15UnrefNonInlinedEm(i64 noundef %14)
          to label %_ZN4absl12lts_202308026StatusD2Ev.exit unwind label %terminate.lpad.i

terminate.lpad.i:                                 ; preds = %if.then.i.i30
  %16 = landingpad { ptr, i32 }
          catch ptr null
  %17 = extractvalue { ptr, i32 } %16, 0
  call void @__clang_call_terminate(ptr %17) #21
  unreachable

_ZN4absl12lts_202308026StatusD2Ev.exit:           ; preds = %if.end33, %if.then.i.i30
  %inc35 = add nuw i64 %i19.035, 1
  %exitcond36.not = icmp eq i64 %inc35, %0
  br i1 %exitcond36.not, label %nrvo.skipdtor, label %for.body22, !llvm.loop !17

nrvo.skipdtor:                                    ; preds = %_ZN4absl12lts_202308026StatusD2Ev.exit, %entry
  ret void

ehcleanup:                                        ; preds = %for.body22
  %18 = landingpad { ptr, i32 }
          cleanup
  call void @_ZN4absl12lts_202308026StatusD2Ev(ptr noundef nonnull align 8 dereferenceable(8) %agg.result) #23
  resume { ptr, i32 } %18
}